
Calculator.elf:     file format elf32-avr

Sections:
Idx Name          Size      VMA       LMA       File off  Algn
  0 .data         00000006  00800100  000001f2  00000286  2**0
                  CONTENTS, ALLOC, LOAD, DATA
  1 .text         000001f2  00000000  00000000  00000094  2**1
                  CONTENTS, ALLOC, LOAD, READONLY, CODE
  2 .bss          00000002  00800106  00800106  0000028c  2**0
                  ALLOC
  3 .comment      00000011  00000000  00000000  0000028c  2**0
                  CONTENTS, READONLY
  4 .note.gnu.avr.deviceinfo 0000003c  00000000  00000000  000002a0  2**2
                  CONTENTS, READONLY
  5 .debug_info   000005f4  00000000  00000000  000002dc  2**0
                  CONTENTS, READONLY, DEBUGGING
  6 .debug_abbrev 000005a2  00000000  00000000  000008d0  2**0
                  CONTENTS, READONLY, DEBUGGING
  7 .debug_line   0000001a  00000000  00000000  00000e72  2**0
                  CONTENTS, READONLY, DEBUGGING
  8 .debug_str    00000208  00000000  00000000  00000e8c  2**0
                  CONTENTS, READONLY, DEBUGGING

Disassembly of section .text:

00000000 <__vectors>:
   0:	19 c0       	rjmp	.+50     	; 0x34 <__ctors_end>
   2:	33 c0       	rjmp	.+102    	; 0x6a <__bad_interrupt>
   4:	32 c0       	rjmp	.+100    	; 0x6a <__bad_interrupt>
   6:	31 c0       	rjmp	.+98     	; 0x6a <__bad_interrupt>
   8:	30 c0       	rjmp	.+96     	; 0x6a <__bad_interrupt>
   a:	2f c0       	rjmp	.+94     	; 0x6a <__bad_interrupt>
   c:	2e c0       	rjmp	.+92     	; 0x6a <__bad_interrupt>
   e:	2d c0       	rjmp	.+90     	; 0x6a <__bad_interrupt>
  10:	2c c0       	rjmp	.+88     	; 0x6a <__bad_interrupt>
  12:	2b c0       	rjmp	.+86     	; 0x6a <__bad_interrupt>
  14:	2a c0       	rjmp	.+84     	; 0x6a <__bad_interrupt>
  16:	29 c0       	rjmp	.+82     	; 0x6a <__bad_interrupt>
  18:	28 c0       	rjmp	.+80     	; 0x6a <__bad_interrupt>
  1a:	27 c0       	rjmp	.+78     	; 0x6a <__bad_interrupt>
  1c:	26 c0       	rjmp	.+76     	; 0x6a <__bad_interrupt>
  1e:	25 c0       	rjmp	.+74     	; 0x6a <__bad_interrupt>
  20:	24 c0       	rjmp	.+72     	; 0x6a <__bad_interrupt>
  22:	23 c0       	rjmp	.+70     	; 0x6a <__bad_interrupt>
  24:	22 c0       	rjmp	.+68     	; 0x6a <__bad_interrupt>
  26:	21 c0       	rjmp	.+66     	; 0x6a <__bad_interrupt>
  28:	20 c0       	rjmp	.+64     	; 0x6a <__bad_interrupt>
  2a:	1f c0       	rjmp	.+62     	; 0x6a <__bad_interrupt>
  2c:	1e c0       	rjmp	.+60     	; 0x6a <__bad_interrupt>
  2e:	1d c0       	rjmp	.+58     	; 0x6a <__bad_interrupt>
  30:	1c c0       	rjmp	.+56     	; 0x6a <__bad_interrupt>
  32:	1b c0       	rjmp	.+54     	; 0x6a <__bad_interrupt>

00000034 <__ctors_end>:
  34:	11 24       	eor	r1, r1
  36:	1f be       	out	0x3f, r1	; 63
  38:	cf ef       	ldi	r28, 0xFF	; 255
  3a:	d4 e0       	ldi	r29, 0x04	; 4
  3c:	de bf       	out	0x3e, r29	; 62
  3e:	cd bf       	out	0x3d, r28	; 61

00000040 <__do_copy_data>:
  40:	11 e0       	ldi	r17, 0x01	; 1
  42:	a0 e0       	ldi	r26, 0x00	; 0
  44:	b1 e0       	ldi	r27, 0x01	; 1
  46:	e2 ef       	ldi	r30, 0xF2	; 242
  48:	f1 e0       	ldi	r31, 0x01	; 1
  4a:	02 c0       	rjmp	.+4      	; 0x50 <__do_copy_data+0x10>
  4c:	05 90       	lpm	r0, Z+
  4e:	0d 92       	st	X+, r0
  50:	a6 30       	cpi	r26, 0x06	; 6
  52:	b1 07       	cpc	r27, r17
  54:	d9 f7       	brne	.-10     	; 0x4c <__do_copy_data+0xc>

00000056 <__do_clear_bss>:
  56:	21 e0       	ldi	r18, 0x01	; 1
  58:	a6 e0       	ldi	r26, 0x06	; 6
  5a:	b1 e0       	ldi	r27, 0x01	; 1
  5c:	01 c0       	rjmp	.+2      	; 0x60 <.do_clear_bss_start>

0000005e <.do_clear_bss_loop>:
  5e:	1d 92       	st	X+, r1

00000060 <.do_clear_bss_start>:
  60:	a8 30       	cpi	r26, 0x08	; 8
  62:	b2 07       	cpc	r27, r18
  64:	e1 f7       	brne	.-8      	; 0x5e <.do_clear_bss_loop>
  66:	9d d0       	rcall	.+314    	; 0x1a2 <main>
  68:	c2 c0       	rjmp	.+388    	; 0x1ee <_exit>

0000006a <__bad_interrupt>:
  6a:	ca cf       	rjmp	.-108    	; 0x0 <__vectors>

0000006c <MoveDigits_4>:
  6c:	80 91 07 01 	lds	r24, 0x0107	; 0x800107 <changeFlag>
  70:	88 23       	and	r24, r24
  72:	b9 f0       	breq	.+46     	; 0xa2 <MoveDigits_4+0x36>
  74:	80 91 06 01 	lds	r24, 0x0106	; 0x800106 <__data_end>
  78:	80 91 01 01 	lds	r24, 0x0101	; 0x800101 <thirdDigit>
  7c:	80 93 02 01 	sts	0x0102, r24	; 0x800102 <forthDigit>
  80:	80 91 03 01 	lds	r24, 0x0103	; 0x800103 <secondDigit>
  84:	80 93 01 01 	sts	0x0101, r24	; 0x800101 <thirdDigit>
  88:	80 91 04 01 	lds	r24, 0x0104	; 0x800104 <firstDigit>
  8c:	80 93 03 01 	sts	0x0103, r24	; 0x800103 <secondDigit>
  90:	80 91 00 01 	lds	r24, 0x0100	; 0x800100 <__data_start>
  94:	80 93 04 01 	sts	0x0104, r24	; 0x800104 <firstDigit>
  98:	10 92 07 01 	sts	0x0107, r1	; 0x800107 <changeFlag>
  9c:	81 e0       	ldi	r24, 0x01	; 1
  9e:	80 93 06 01 	sts	0x0106, r24	; 0x800106 <__data_end>
  a2:	08 95       	ret

000000a4 <SwitchDisplayedDigit>:
  a4:	81 30       	cpi	r24, 0x01	; 1
  a6:	91 05       	cpc	r25, r1
  a8:	79 f0       	breq	.+30     	; 0xc8 <SwitchDisplayedDigit+0x24>
  aa:	1c f4       	brge	.+6      	; 0xb2 <SwitchDisplayedDigit+0xe>
  ac:	89 2b       	or	r24, r25
  ae:	39 f0       	breq	.+14     	; 0xbe <SwitchDisplayedDigit+0x1a>
  b0:	08 95       	ret
  b2:	82 30       	cpi	r24, 0x02	; 2
  b4:	91 05       	cpc	r25, r1
  b6:	69 f0       	breq	.+26     	; 0xd2 <SwitchDisplayedDigit+0x2e>
  b8:	03 97       	sbiw	r24, 0x03	; 3
  ba:	81 f0       	breq	.+32     	; 0xdc <SwitchDisplayedDigit+0x38>
  bc:	08 95       	ret
  be:	81 e0       	ldi	r24, 0x01	; 1
  c0:	88 b9       	out	0x08, r24	; 8
  c2:	80 91 02 01 	lds	r24, 0x0102	; 0x800102 <forthDigit>
  c6:	0e c0       	rjmp	.+28     	; 0xe4 <SwitchDisplayedDigit+0x40>
  c8:	82 e0       	ldi	r24, 0x02	; 2
  ca:	88 b9       	out	0x08, r24	; 8
  cc:	80 91 01 01 	lds	r24, 0x0101	; 0x800101 <thirdDigit>
  d0:	09 c0       	rjmp	.+18     	; 0xe4 <SwitchDisplayedDigit+0x40>
  d2:	84 e0       	ldi	r24, 0x04	; 4
  d4:	88 b9       	out	0x08, r24	; 8
  d6:	80 91 03 01 	lds	r24, 0x0103	; 0x800103 <secondDigit>
  da:	04 c0       	rjmp	.+8      	; 0xe4 <SwitchDisplayedDigit+0x40>
  dc:	88 e0       	ldi	r24, 0x08	; 8
  de:	88 b9       	out	0x08, r24	; 8
  e0:	80 91 04 01 	lds	r24, 0x0104	; 0x800104 <firstDigit>
  e4:	85 b9       	out	0x05, r24	; 5
  e6:	08 95       	ret

000000e8 <FindPressedButton>:
  e8:	8f ee       	ldi	r24, 0xEF	; 239
  ea:	8b b9       	out	0x0b, r24	; 11
  ec:	00 00       	nop
  ee:	48 99       	sbic	0x09, 0	; 9
  f0:	02 c0       	rjmp	.+4      	; 0xf6 <FindPressedButton+0xe>
  f2:	89 ef       	ldi	r24, 0xF9	; 249
  f4:	0b c0       	rjmp	.+22     	; 0x10c <FindPressedButton+0x24>
  f6:	49 99       	sbic	0x09, 1	; 9
  f8:	02 c0       	rjmp	.+4      	; 0xfe <FindPressedButton+0x16>
  fa:	84 ea       	ldi	r24, 0xA4	; 164
  fc:	07 c0       	rjmp	.+14     	; 0x10c <FindPressedButton+0x24>
  fe:	4a 99       	sbic	0x09, 2	; 9
 100:	02 c0       	rjmp	.+4      	; 0x106 <FindPressedButton+0x1e>
 102:	80 eb       	ldi	r24, 0xB0	; 176
 104:	03 c0       	rjmp	.+6      	; 0x10c <FindPressedButton+0x24>
 106:	4b 99       	sbic	0x09, 3	; 9
 108:	06 c0       	rjmp	.+12     	; 0x116 <FindPressedButton+0x2e>
 10a:	88 e8       	ldi	r24, 0x88	; 136
 10c:	80 93 00 01 	sts	0x0100, r24	; 0x800100 <__data_start>
 110:	81 e0       	ldi	r24, 0x01	; 1
 112:	80 93 07 01 	sts	0x0107, r24	; 0x800107 <changeFlag>
 116:	8f ed       	ldi	r24, 0xDF	; 223
 118:	8b b9       	out	0x0b, r24	; 11
 11a:	00 00       	nop
 11c:	48 99       	sbic	0x09, 0	; 9
 11e:	02 c0       	rjmp	.+4      	; 0x124 <FindPressedButton+0x3c>
 120:	89 e9       	ldi	r24, 0x99	; 153
 122:	0b c0       	rjmp	.+22     	; 0x13a <FindPressedButton+0x52>
 124:	49 99       	sbic	0x09, 1	; 9
 126:	02 c0       	rjmp	.+4      	; 0x12c <FindPressedButton+0x44>
 128:	82 e9       	ldi	r24, 0x92	; 146
 12a:	07 c0       	rjmp	.+14     	; 0x13a <FindPressedButton+0x52>
 12c:	4a 99       	sbic	0x09, 2	; 9
 12e:	02 c0       	rjmp	.+4      	; 0x134 <FindPressedButton+0x4c>
 130:	82 e8       	ldi	r24, 0x82	; 130
 132:	03 c0       	rjmp	.+6      	; 0x13a <FindPressedButton+0x52>
 134:	4b 99       	sbic	0x09, 3	; 9
 136:	06 c0       	rjmp	.+12     	; 0x144 <FindPressedButton+0x5c>
 138:	83 e8       	ldi	r24, 0x83	; 131
 13a:	80 93 00 01 	sts	0x0100, r24	; 0x800100 <__data_start>
 13e:	81 e0       	ldi	r24, 0x01	; 1
 140:	80 93 07 01 	sts	0x0107, r24	; 0x800107 <changeFlag>
 144:	8f eb       	ldi	r24, 0xBF	; 191
 146:	8b b9       	out	0x0b, r24	; 11
 148:	00 00       	nop
 14a:	48 99       	sbic	0x09, 0	; 9
 14c:	02 c0       	rjmp	.+4      	; 0x152 <FindPressedButton+0x6a>
 14e:	88 ef       	ldi	r24, 0xF8	; 248
 150:	0b c0       	rjmp	.+22     	; 0x168 <FindPressedButton+0x80>
 152:	49 99       	sbic	0x09, 1	; 9
 154:	02 c0       	rjmp	.+4      	; 0x15a <FindPressedButton+0x72>
 156:	80 e8       	ldi	r24, 0x80	; 128
 158:	07 c0       	rjmp	.+14     	; 0x168 <FindPressedButton+0x80>
 15a:	4a 99       	sbic	0x09, 2	; 9
 15c:	02 c0       	rjmp	.+4      	; 0x162 <FindPressedButton+0x7a>
 15e:	80 e9       	ldi	r24, 0x90	; 144
 160:	03 c0       	rjmp	.+6      	; 0x168 <FindPressedButton+0x80>
 162:	4b 99       	sbic	0x09, 3	; 9
 164:	06 c0       	rjmp	.+12     	; 0x172 <FindPressedButton+0x8a>
 166:	86 ec       	ldi	r24, 0xC6	; 198
 168:	80 93 00 01 	sts	0x0100, r24	; 0x800100 <__data_start>
 16c:	81 e0       	ldi	r24, 0x01	; 1
 16e:	80 93 07 01 	sts	0x0107, r24	; 0x800107 <changeFlag>
 172:	8f e7       	ldi	r24, 0x7F	; 127
 174:	8b b9       	out	0x0b, r24	; 11
 176:	00 00       	nop
 178:	48 99       	sbic	0x09, 0	; 9
 17a:	02 c0       	rjmp	.+4      	; 0x180 <FindPressedButton+0x98>
 17c:	8f e8       	ldi	r24, 0x8F	; 143
 17e:	0b c0       	rjmp	.+22     	; 0x196 <FindPressedButton+0xae>
 180:	49 99       	sbic	0x09, 1	; 9
 182:	02 c0       	rjmp	.+4      	; 0x188 <FindPressedButton+0xa0>
 184:	80 ec       	ldi	r24, 0xC0	; 192
 186:	07 c0       	rjmp	.+14     	; 0x196 <FindPressedButton+0xae>
 188:	4a 99       	sbic	0x09, 2	; 9
 18a:	02 c0       	rjmp	.+4      	; 0x190 <FindPressedButton+0xa8>
 18c:	89 e8       	ldi	r24, 0x89	; 137
 18e:	03 c0       	rjmp	.+6      	; 0x196 <FindPressedButton+0xae>
 190:	4b 99       	sbic	0x09, 3	; 9
 192:	06 c0       	rjmp	.+12     	; 0x1a0 <FindPressedButton+0xb8>
 194:	81 ea       	ldi	r24, 0xA1	; 161
 196:	80 93 00 01 	sts	0x0100, r24	; 0x800100 <__data_start>
 19a:	81 e0       	ldi	r24, 0x01	; 1
 19c:	80 93 07 01 	sts	0x0107, r24	; 0x800107 <changeFlag>
 1a0:	08 95       	ret

000001a2 <main>:
 1a2:	80 ef       	ldi	r24, 0xF0	; 240
 1a4:	8a b9       	out	0x0a, r24	; 10
 1a6:	8f ef       	ldi	r24, 0xFF	; 255
 1a8:	8b b9       	out	0x0b, r24	; 11
 1aa:	84 b9       	out	0x04, r24	; 4
 1ac:	87 b9       	out	0x07, r24	; 7
 1ae:	c0 e0       	ldi	r28, 0x00	; 0
 1b0:	d0 e0       	ldi	r29, 0x00	; 0
 1b2:	5c df       	rcall	.-328    	; 0x6c <MoveDigits_4>
 1b4:	21 96       	adiw	r28, 0x01	; 1
 1b6:	c4 30       	cpi	r28, 0x04	; 4
 1b8:	d1 05       	cpc	r29, r1
 1ba:	14 f0       	brlt	.+4      	; 0x1c0 <main+0x1e>
 1bc:	c0 e0       	ldi	r28, 0x00	; 0
 1be:	d0 e0       	ldi	r29, 0x00	; 0
 1c0:	ce 01       	movw	r24, r28
 1c2:	70 df       	rcall	.-288    	; 0xa4 <SwitchDisplayedDigit>
 1c4:	91 df       	rcall	.-222    	; 0xe8 <FindPressedButton>
 1c6:	80 91 07 01 	lds	r24, 0x0107	; 0x800107 <changeFlag>
 1ca:	88 23       	and	r24, r24
 1cc:	39 f0       	breq	.+14     	; 0x1dc <main+0x3a>
 1ce:	80 91 06 01 	lds	r24, 0x0106	; 0x800106 <__data_end>
 1d2:	88 23       	and	r24, r24
 1d4:	19 f0       	breq	.+6      	; 0x1dc <main+0x3a>
 1d6:	10 92 07 01 	sts	0x0107, r1	; 0x800107 <changeFlag>
 1da:	eb cf       	rjmp	.-42     	; 0x1b2 <main+0x10>
 1dc:	80 91 07 01 	lds	r24, 0x0107	; 0x800107 <changeFlag>
 1e0:	80 91 06 01 	lds	r24, 0x0106	; 0x800106 <__data_end>
 1e4:	88 23       	and	r24, r24
 1e6:	29 f3       	breq	.-54     	; 0x1b2 <main+0x10>
 1e8:	10 92 06 01 	sts	0x0106, r1	; 0x800106 <__data_end>
 1ec:	e2 cf       	rjmp	.-60     	; 0x1b2 <main+0x10>

000001ee <_exit>:
 1ee:	f8 94       	cli

000001f0 <__stop_program>:
 1f0:	ff cf       	rjmp	.-2      	; 0x1f0 <__stop_program>
